target datalayout = "e-m:e-p270:32:32-p271:32:32-p272:64:64-i64:64-i128:128-f80:128-n8:16:32:64-S128"
target triple = "x86_64-pc-linux-gnu"

; Function Attrs: nounwind uwtable
define internal i64 @intarith(ptr noundef %0, i32 noundef %1, i64 noundef %2, i64 noundef %3) #0 {
  %5 = alloca i64, align 8
  %6 = alloca ptr, align 8
  %7 = alloca i32, align 4
  %8 = alloca i64, align 8
  %9 = alloca i64, align 8
  store ptr %0, ptr %6, align 8, !tbaa !11
  store i32 %1, ptr %7, align 4, !tbaa !4
  store i64 %2, ptr %8, align 8, !tbaa !18
  store i64 %3, ptr %9, align 8, !tbaa !18
  %10 = load i32, ptr %7, align 4, !tbaa !4
  switch i32 %10, label %60 [
    i32 0, label %11
    i32 1, label %15
    i32 2, label %19
    i32 3, label %23
    i32 6, label %28
    i32 7, label %33
    i32 8, label %37
    i32 9, label %41
    i32 10, label %45
    i32 11, label %49
    i32 12, label %54
    i32 13, label %57
  ]

11:                                               ; preds = %4
  %12 = load i64, ptr %8, align 8, !tbaa !18
  %13 = load i64, ptr %9, align 8, !tbaa !18
  %14 = add i64 %12, %13
  store i64 %14, ptr %5, align 8
  br label %61

15:                                               ; preds = %4
  %16 = load i64, ptr %8, align 8, !tbaa !18
  %17 = load i64, ptr %9, align 8, !tbaa !18
  %18 = sub i64 %16, %17
  store i64 %18, ptr %5, align 8
  br label %61

19:                                               ; preds = %4
  %20 = load i64, ptr %8, align 8, !tbaa !18
  %21 = load i64, ptr %9, align 8, !tbaa !18
  %22 = mul i64 %20, %21
  store i64 %22, ptr %5, align 8
  br label %61

23:                                               ; preds = %4
  %24 = load ptr, ptr %6, align 8, !tbaa !11
  %25 = load i64, ptr %8, align 8, !tbaa !18
  %26 = load i64, ptr %9, align 8, !tbaa !18
  %27 = call i64 @luaV_mod(ptr noundef %24, i64 noundef %25, i64 noundef %26)
  store i64 %27, ptr %5, align 8
  br label %61

28:                                               ; preds = %4
  %29 = load ptr, ptr %6, align 8, !tbaa !11
  %30 = load i64, ptr %8, align 8, !tbaa !18
  %31 = load i64, ptr %9, align 8, !tbaa !18
  %32 = call i64 @luaV_idiv(ptr noundef %29, i64 noundef %30, i64 noundef %31)
  store i64 %32, ptr %5, align 8
  br label %61

33:                                               ; preds = %4
  %34 = load i64, ptr %8, align 8, !tbaa !18
  %35 = load i64, ptr %9, align 8, !tbaa !18
  %36 = and i64 %34, %35
  store i64 %36, ptr %5, align 8
  br label %61

37:                                               ; preds = %4
  %38 = load i64, ptr %8, align 8, !tbaa !18
  %39 = load i64, ptr %9, align 8, !tbaa !18
  %40 = or i64 %38, %39
  store i64 %40, ptr %5, align 8
  br label %61

41:                                               ; preds = %4
  %42 = load i64, ptr %8, align 8, !tbaa !18
  %43 = load i64, ptr %9, align 8, !tbaa !18
  %44 = xor i64 %42, %43
  store i64 %44, ptr %5, align 8
  br label %61

45:                                               ; preds = %4
  %46 = load i64, ptr %8, align 8, !tbaa !18
  %47 = load i64, ptr %9, align 8, !tbaa !18
  %48 = call i64 @luaV_shiftl(i64 noundef %46, i64 noundef %47)
  store i64 %48, ptr %5, align 8
  br label %61

49:                                               ; preds = %4
  %50 = load i64, ptr %8, align 8, !tbaa !18
  %51 = load i64, ptr %9, align 8, !tbaa !18
  %52 = sub i64 0, %51
  %53 = call i64 @luaV_shiftl(i64 noundef %50, i64 noundef %52)
  store i64 %53, ptr %5, align 8
  br label %61

54:                                               ; preds = %4
  %55 = load i64, ptr %8, align 8, !tbaa !18
  %56 = sub i64 0, %55
  store i64 %56, ptr %5, align 8
  br label %61

57:                                               ; preds = %4
  %58 = load i64, ptr %8, align 8, !tbaa !18
  %59 = xor i64 -1, %58
  store i64 %59, ptr %5, align 8
  br label %61

60:                                               ; preds = %4
  store i64 0, ptr %5, align 8
  br label %61

61:                                               ; preds = %60, %57, %54, %49, %45, %41, %37, %33, %28, %23, %19, %15, %11
  %62 = load i64, ptr %5, align 8
  ret i64 %62
}