; Function Attrs: nounwind uwtable
define internal fastcc i64 @intarith(ptr noundef %0, i32 noundef %1, i64 noundef %2, i64 noundef %3) unnamed_addr #3 {
  switch i32 %1, label %30 [
    i32 0, label %5
    i32 1, label %7
    i32 2, label %9
    i32 3, label %11
    i32 6, label %13
    i32 7, label %15
    i32 8, label %17
    i32 9, label %19
    i32 10, label %21
    i32 11, label %23
    i32 12, label %26
    i32 13, label %28
  ]

5:                                                ; preds = %4
  %6 = add i64 %3, %2
  br label %30

7:                                                ; preds = %4
  %8 = sub i64 %2, %3
  br label %30

9:                                                ; preds = %4
  %10 = mul i64 %3, %2
  br label %30

11:                                               ; preds = %4
  %12 = tail call i64 @luaV_mod(ptr noundef %0, i64 noundef %2, i64 noundef %3) #18
  br label %30

13:                                               ; preds = %4
  %14 = tail call i64 @luaV_idiv(ptr noundef %0, i64 noundef %2, i64 noundef %3) #18
  br label %30

15:                                               ; preds = %4
  %16 = and i64 %3, %2
  br label %30

17:                                               ; preds = %4
  %18 = or i64 %3, %2
  br label %30

19:                                               ; preds = %4
  %20 = xor i64 %3, %2
  br label %30

21:                                               ; preds = %4
  %22 = tail call i64 @luaV_shiftl(i64 noundef %2, i64 noundef %3) #18
  br label %30

23:                                               ; preds = %4
  %24 = sub i64 0, %3
  %25 = tail call i64 @luaV_shiftl(i64 noundef %2, i64 noundef %24) #18
  br label %30

26:                                               ; preds = %4
  %27 = sub i64 0, %2
  br label %30

28:                                               ; preds = %4
  %29 = xor i64 %2, -1
  br label %30

30:                                               ; preds = %4, %28, %26, %23, %21, %19, %17, %15, %13, %11, %9, %7, %5
  %.0 = phi i64 [ %29, %28 ], [ %27, %26 ], [ %25, %23 ], [ %22, %21 ], [ %20, %19 ], [ %18, %17 ], [ %16, %15 ], [ %14, %13 ], [ %12, %11 ], [ %10, %9 ], [ %8, %7 ], [ %6, %5 ], [ 0, %4 ]
  ret i64 %.0
}